; ModuleID = '57/937.c'
source_filename = "57/937.c"
target datalayout = "e-m:e-p270:32:32-p271:32:32-p272:64:64-i64:64-f80:128-n8:16:32:64-S128"
target triple = "x86_64-pc-linux-gnu"

@.str = private unnamed_addr constant [3 x i8] c"%d\00", align 1
@.str.1 = private unnamed_addr constant [3 x i8] c"%s\00", align 1
@.str.2 = private unnamed_addr constant [4 x i8] c"%s\0A\00", align 1

; Function Attrs: noinline nounwind uwtable
define dso_local i32 @main() #0 {
  %1 = alloca i32, align 4
  %2 = alloca i32, align 4
  %3 = alloca i32, align 4
  %4 = alloca [51 x i32], align 16
  %5 = alloca i32, align 4
  %6 = alloca i32, align 4
  %7 = alloca i32, align 4
  %8 = alloca [51 x [33 x i8]], align 16
  store i32 0, i32* %1, align 4
  %9 = call i32 (i8*, ...) @__isoc99_scanf(i8* getelementptr inbounds ([3 x i8], [3 x i8]* @.str, i64 0, i64 0), i32* %2)
  store i32 0, i32* %3, align 4
  br label %10

10:                                               ; preds = %29, %0
  %11 = load i32, i32* %3, align 4
  %12 = load i32, i32* %2, align 4
  %13 = icmp slt i32 %11, %12
  br i1 %13, label %14, label %32

14:                                               ; preds = %10
  %15 = load i32, i32* %3, align 4
  %16 = sext i32 %15 to i64
  %17 = getelementptr inbounds [51 x [33 x i8]], [51 x [33 x i8]]* %8, i64 0, i64 %16
  %18 = getelementptr inbounds [33 x i8], [33 x i8]* %17, i64 0, i64 0
  %19 = call i32 (i8*, ...) @__isoc99_scanf(i8* getelementptr inbounds ([3 x i8], [3 x i8]* @.str.1, i64 0, i64 0), i8* %18)
  %20 = load i32, i32* %3, align 4
  %21 = sext i32 %20 to i64
  %22 = getelementptr inbounds [51 x [33 x i8]], [51 x [33 x i8]]* %8, i64 0, i64 %21
  %23 = getelementptr inbounds [33 x i8], [33 x i8]* %22, i64 0, i64 0
  %24 = call i64 @strlen(i8* %23) #3
  %25 = trunc i64 %24 to i32
  %26 = load i32, i32* %3, align 4
  %27 = sext i32 %26 to i64
  %28 = getelementptr inbounds [51 x i32], [51 x i32]* %4, i64 0, i64 %27
  store i32 %25, i32* %28, align 4
  br label %29

29:                                               ; preds = %14
  %30 = load i32, i32* %3, align 4
  %31 = add nsw i32 %30, 1
  store i32 %31, i32* %3, align 4
  br label %10

32:                                               ; preds = %10
  store i32 0, i32* %5, align 4
  br label %33

33:                                               ; preds = %80, %32
  %34 = load i32, i32* %5, align 4
  %35 = load i32, i32* %2, align 4
  %36 = icmp slt i32 %34, %35
  br i1 %36, label %37, label %83

37:                                               ; preds = %33
  %38 = load i32, i32* %5, align 4
  %39 = sext i32 %38 to i64
  %40 = getelementptr inbounds [51 x i32], [51 x i32]* %4, i64 0, i64 %39
  %41 = load i32, i32* %40, align 4
  store i32 %41, i32* %6, align 4
  %42 = load i32, i32* %5, align 4
  %43 = sext i32 %42 to i64
  %44 = getelementptr inbounds [51 x [33 x i8]], [51 x [33 x i8]]* %8, i64 0, i64 %43
  %45 = load i32, i32* %6, align 4
  %46 = sub nsw i32 %45, 1
  %47 = sext i32 %46 to i64
  %48 = getelementptr inbounds [33 x i8], [33 x i8]* %44, i64 0, i64 %47
  %49 = load i8, i8* %48, align 1
  %50 = sext i8 %49 to i32
  %51 = icmp eq i32 %50, 114
  br i1 %51, label %63, label %52

52:                                               ; preds = %37
  %53 = load i32, i32* %5, align 4
  %54 = sext i32 %53 to i64
  %55 = getelementptr inbounds [51 x [33 x i8]], [51 x [33 x i8]]* %8, i64 0, i64 %54
  %56 = load i32, i32* %6, align 4
  %57 = sub nsw i32 %56, 1
  %58 = sext i32 %57 to i64
  %59 = getelementptr inbounds [33 x i8], [33 x i8]* %55, i64 0, i64 %58
  %60 = load i8, i8* %59, align 1
  %61 = sext i8 %60 to i32
  %62 = icmp eq i32 %61, 121
  br i1 %62, label %63, label %71

63:                                               ; preds = %52, %37
  %64 = load i32, i32* %5, align 4
  %65 = sext i32 %64 to i64
  %66 = getelementptr inbounds [51 x [33 x i8]], [51 x [33 x i8]]* %8, i64 0, i64 %65
  %67 = load i32, i32* %6, align 4
  %68 = sub nsw i32 %67, 2
  %69 = sext i32 %68 to i64
  %70 = getelementptr inbounds [33 x i8], [33 x i8]* %66, i64 0, i64 %69
  store i8 0, i8* %70, align 1
  br label %79

71:                                               ; preds = %52
  %72 = load i32, i32* %5, align 4
  %73 = sext i32 %72 to i64
  %74 = getelementptr inbounds [51 x [33 x i8]], [51 x [33 x i8]]* %8, i64 0, i64 %73
  %75 = load i32, i32* %6, align 4
  %76 = sub nsw i32 %75, 3
  %77 = sext i32 %76 to i64
  %78 = getelementptr inbounds [33 x i8], [33 x i8]* %74, i64 0, i64 %77
  store i8 0, i8* %78, align 1
  br label %79

79:                                               ; preds = %71, %63
  br label %80

80:                                               ; preds = %79
  %81 = load i32, i32* %5, align 4
  %82 = add nsw i32 %81, 1
  store i32 %82, i32* %5, align 4
  br label %33

83:                                               ; preds = %33
  store i32 0, i32* %7, align 4
  br label %84

84:                                               ; preds = %94, %83
  %85 = load i32, i32* %7, align 4
  %86 = load i32, i32* %2, align 4
  %87 = icmp slt i32 %85, %86
  br i1 %87, label %88, label %97

88:                                               ; preds = %84
  %89 = load i32, i32* %7, align 4
  %90 = sext i32 %89 to i64
  %91 = getelementptr inbounds [51 x [33 x i8]], [51 x [33 x i8]]* %8, i64 0, i64 %90
  %92 = getelementptr inbounds [33 x i8], [33 x i8]* %91, i64 0, i64 0
  %93 = call i32 (i8*, ...) @printf(i8* getelementptr inbounds ([4 x i8], [4 x i8]* @.str.2, i64 0, i64 0), i8* %92)
  br label %94

94:                                               ; preds = %88
  %95 = load i32, i32* %7, align 4
  %96 = add nsw i32 %95, 1
  store i32 %96, i32* %7, align 4
  br label %84

97:                                               ; preds = %84
  ret i32 0
}

declare dso_local i32 @__isoc99_scanf(i8*, ...) #1

; Function Attrs: nounwind readonly
declare dso_local i64 @strlen(i8*) #2

declare dso_local i32 @printf(i8*, ...) #1


!llvm.module.flags = !{!0}
!llvm.ident = !{!1}

!0 = !{i32 1, !"wchar_size", i32 4}
!1 = !{!"clang version 10.0.0-4ubuntu1 "}
