; ModuleID = 'source-C-CXX/56/937.c'
source_filename = "source-C-CXX/56/937.c"
target datalayout = "e-m:e-p270:32:32-p271:32:32-p272:64:64-i64:64-f80:128-n8:16:32:64-S128"
target triple = "x86_64-pc-linux-gnu"

@.str = private unnamed_addr constant [3 x i8] c"%d\00", align 1
@.str.1 = private unnamed_addr constant [3 x i8] c"%s\00", align 1

; Function Attrs: nofree nounwind sspstrong uwtable
define dso_local i32 @main() local_unnamed_addr #0 {
  %1 = alloca i32, align 4
  %2 = alloca [51 x i32], align 16
  %3 = alloca [51 x [33 x i8]], align 16
  %4 = bitcast i32* %1 to i8*
  call void @llvm.lifetime.start.p0i8(i64 4, i8* nonnull %4) #5
  %5 = bitcast [51 x i32]* %2 to i8*
  call void @llvm.lifetime.start.p0i8(i64 204, i8* nonnull %5) #5
  %6 = getelementptr inbounds [51 x [33 x i8]], [51 x [33 x i8]]* %3, i64 0, i64 0, i64 0
  call void @llvm.lifetime.start.p0i8(i64 1683, i8* nonnull %6) #5
  %7 = call i32 (i8*, ...) @__isoc99_scanf(i8* getelementptr inbounds ([3 x i8], [3 x i8]* @.str, i64 0, i64 0), i32* nonnull %1)
  %8 = load i32, i32* %1, align 4, !tbaa !5
  %9 = icmp sgt i32 %8, 0
  br i1 %9, label %14, label %51

10:                                               ; preds = %14
  %11 = icmp sgt i32 %22, 0
  br i1 %11, label %12, label %51

12:                                               ; preds = %10
  %13 = zext i32 %22 to i64
  br label %26

14:                                               ; preds = %0, %14
  %15 = phi i64 [ %21, %14 ], [ 0, %0 ]
  %16 = getelementptr inbounds [51 x [33 x i8]], [51 x [33 x i8]]* %3, i64 0, i64 %15, i64 0
  %17 = call i32 (i8*, ...) @__isoc99_scanf(i8* getelementptr inbounds ([3 x i8], [3 x i8]* @.str.1, i64 0, i64 0), i8* nonnull %16)
  %18 = call i64 @strlen(i8* noundef nonnull %16) #6
  %19 = trunc i64 %18 to i32
  %20 = getelementptr inbounds [51 x i32], [51 x i32]* %2, i64 0, i64 %15
  store i32 %19, i32* %20, align 4, !tbaa !5
  %21 = add nuw nsw i64 %15, 1
  %22 = load i32, i32* %1, align 4, !tbaa !5
  %23 = sext i32 %22 to i64
  %24 = icmp slt i64 %21, %23
  br i1 %24, label %14, label %10, !llvm.loop !9

25:                                               ; preds = %26
  br i1 %11, label %43, label %51

26:                                               ; preds = %12, %26
  %27 = phi i64 [ 0, %12 ], [ %41, %26 ]
  %28 = getelementptr inbounds [51 x i32], [51 x i32]* %2, i64 0, i64 %27
  %29 = load i32, i32* %28, align 4, !tbaa !5
  %30 = add nsw i32 %29, -1
  %31 = sext i32 %30 to i64
  %32 = getelementptr inbounds [51 x [33 x i8]], [51 x [33 x i8]]* %3, i64 0, i64 %27, i64 %31
  %33 = load i8, i8* %32, align 1, !tbaa !11
  %34 = icmp eq i8 %33, 114
  %35 = icmp eq i8 %33, 121
  %36 = or i1 %34, %35
  %37 = select i1 %36, i32 -2, i32 -3
  %38 = add nsw i32 %29, %37
  %39 = sext i32 %38 to i64
  %40 = getelementptr inbounds [51 x [33 x i8]], [51 x [33 x i8]]* %3, i64 0, i64 %27, i64 %39
  store i8 0, i8* %40, align 1, !tbaa !11
  %41 = add nuw nsw i64 %27, 1
  %42 = icmp eq i64 %41, %13
  br i1 %42, label %25, label %26, !llvm.loop !12

43:                                               ; preds = %25, %43
  %44 = phi i64 [ %47, %43 ], [ 0, %25 ]
  %45 = getelementptr inbounds [51 x [33 x i8]], [51 x [33 x i8]]* %3, i64 0, i64 %44, i64 0
  %46 = call i32 @puts(i8* nonnull %45)
  %47 = add nuw nsw i64 %44, 1
  %48 = load i32, i32* %1, align 4, !tbaa !5
  %49 = sext i32 %48 to i64
  %50 = icmp slt i64 %47, %49
  br i1 %50, label %43, label %51, !llvm.loop !13

51:                                               ; preds = %43, %10, %0, %25
  call void @llvm.lifetime.end.p0i8(i64 1683, i8* nonnull %6) #5
  call void @llvm.lifetime.end.p0i8(i64 204, i8* nonnull %5) #5
  call void @llvm.lifetime.end.p0i8(i64 4, i8* nonnull %4) #5
  ret i32 0
}

; Function Attrs: argmemonly mustprogress nofree nosync nounwind willreturn
declare void @llvm.lifetime.start.p0i8(i64 immarg, i8* nocapture) #1

; Function Attrs: nofree nounwind
declare noundef i32 @__isoc99_scanf(i8* nocapture noundef readonly, ...) local_unnamed_addr #2

; Function Attrs: argmemonly mustprogress nofree nounwind readonly willreturn
declare i64 @strlen(i8* nocapture) local_unnamed_addr #3

; Function Attrs: argmemonly mustprogress nofree nosync nounwind willreturn
declare void @llvm.lifetime.end.p0i8(i64 immarg, i8* nocapture) #1

; Function Attrs: nofree nounwind
declare noundef i32 @puts(i8* nocapture noundef readonly) local_unnamed_addr #4


!llvm.module.flags = !{!0, !1, !2, !3}
!llvm.ident = !{!4}

!0 = !{i32 1, !"wchar_size", i32 4}
!1 = !{i32 7, !"PIC Level", i32 2}
!2 = !{i32 7, !"PIE Level", i32 2}
!3 = !{i32 7, !"uwtable", i32 1}
!4 = !{!"clang version 13.0.0"}
!5 = !{!6, !6, i64 0}
!6 = !{!"int", !7, i64 0}
!7 = !{!"omnipotent char", !8, i64 0}
!8 = !{!"Simple C/C++ TBAA"}
!9 = distinct !{!9, !10}
!10 = !{!"llvm.loop.mustprogress"}
!11 = !{!7, !7, i64 0}
!12 = distinct !{!12, !10}
!13 = distinct !{!13, !10}
